; Function Attrs: mustprogress nofree norecurse nosync nounwind willreturn memory(write, argmem: readwrite, inaccessiblemem: none) uwtable
define dso_local noundef nonnull align 8 dereferenceable(16) ptr @_ZN4absl12log_internal10LogMessage13WithTimestampENS_4TimeE(ptr noundef nonnull readonly returned align 8 captures(ret: address, provenance) dereferenceable(16) %0, i64 %1, i32 %2) local_unnamed_addr #13 align 2 {
  %4 = getelementptr inbounds nuw i8, ptr %0, i64 8
  %5 = load ptr, ptr %4, align 8, !tbaa !4
  %6 = getelementptr inbounds nuw i8, ptr %5, i64 48
  store i64 %1, ptr %6, align 8
  %.sroa.22.0..sroa_idx = getelementptr inbounds nuw i8, ptr %5, i64 56
  store i32 %2, ptr %.sroa.22.0..sroa_idx, align 8, !tbaa !30
  ret ptr %0
}